target datalayout = "e-m:e-p270:32:32-p271:32:32-p272:64:64-i64:64-i128:128-f80:128-n8:16:32:64-S128"
target triple = "x86_64-pc-linux-gnu"

%struct.UList = type { ptr, ptr, ptr, i32 }
%struct.UListNode = type { ptr, ptr, ptr, i8 }

; Function Attrs: mustprogress nounwind uwtable
define signext i8 @ulist_containsString_77(ptr noundef %0, ptr noundef %1, i32 noundef %2) #5 {
  %4 = alloca i8, align 1
  %5 = alloca ptr, align 8
  %6 = alloca ptr, align 8
  %7 = alloca i32, align 4
  %8 = alloca ptr, align 8
  %9 = alloca i32, align 4
  store ptr %0, ptr %5, align 8, !tbaa !7
  store ptr %1, ptr %6, align 8, !tbaa !25
  store i32 %2, ptr %7, align 4, !tbaa !27
  %10 = load ptr, ptr %5, align 8, !tbaa !7
  %11 = icmp ne ptr %10, null
  br i1 %11, label %12, label %47

12:                                               ; preds = %3
  call void @llvm.lifetime.start.p0(i64 8, ptr %8) #7
  %13 = load ptr, ptr %5, align 8, !tbaa !7
  %14 = getelementptr inbounds nuw %struct.UList, ptr %13, i32 0, i32 1
  %15 = load ptr, ptr %14, align 8, !tbaa !15
  store ptr %15, ptr %8, align 8, !tbaa !19
  br label %16

16:                                               ; preds = %39, %12
  %17 = load ptr, ptr %8, align 8, !tbaa !19
  %18 = icmp ne ptr %17, null
  br i1 %18, label %19, label %43

19:                                               ; preds = %16
  %20 = load i32, ptr %7, align 4, !tbaa !27
  %21 = load ptr, ptr %8, align 8, !tbaa !19
  %22 = getelementptr inbounds nuw %struct.UListNode, ptr %21, i32 0, i32 0
  %23 = load ptr, ptr %22, align 8, !tbaa !20
  %24 = call i64 @strlen(ptr noundef %23) #9
  %25 = trunc i64 %24 to i32
  %26 = icmp eq i32 %20, %25
  br i1 %26, label %27, label %38

27:                                               ; preds = %19
  %28 = load ptr, ptr %6, align 8, !tbaa !25
  %29 = load ptr, ptr %8, align 8, !tbaa !19
  %30 = getelementptr inbounds nuw %struct.UListNode, ptr %29, i32 0, i32 0
  %31 = load ptr, ptr %30, align 8, !tbaa !20
  %32 = load i32, ptr %7, align 4, !tbaa !27
  %33 = sext i32 %32 to i64
  %34 = call i32 @memcmp(ptr noundef %28, ptr noundef %31, i64 noundef %33) #9
  %35 = icmp eq i32 %34, 0
  br i1 %35, label %36, label %37

36:                                               ; preds = %27
  store i8 1, ptr %4, align 1
  store i32 1, ptr %9, align 4
  br label %44

37:                                               ; preds = %27
  br label %38

38:                                               ; preds = %37, %19
  br label %39

39:                                               ; preds = %38
  %40 = load ptr, ptr %8, align 8, !tbaa !19
  %41 = getelementptr inbounds nuw %struct.UListNode, ptr %40, i32 0, i32 1
  %42 = load ptr, ptr %41, align 8, !tbaa !23
  store ptr %42, ptr %8, align 8, !tbaa !19
  br label %16, !llvm.loop !28

43:                                               ; preds = %16
  store i32 0, ptr %9, align 4
  br label %44

44:                                               ; preds = %43, %36
  call void @llvm.lifetime.end.p0(i64 8, ptr %8) #7
  %45 = load i32, ptr %9, align 4
  switch i32 %45, label %50 [
    i32 0, label %46
    i32 1, label %48
  ]

46:                                               ; preds = %44
  br label %47

47:                                               ; preds = %46, %3
  store i8 0, ptr %4, align 1
  br label %48

48:                                               ; preds = %47, %44
  %49 = load i8, ptr %4, align 1
  ret i8 %49

50:                                               ; preds = %44
  unreachable
}