; Function Attrs: mustprogress nofree nounwind willreturn memory(read, inaccessiblemem: none) uwtable
define signext range(i8 0, 2) i8 @ulist_containsString_77(ptr noundef readonly %0, ptr noundef readonly captures(none) %1, i32 noundef %2) local_unnamed_addr #3 {
  %.not = icmp eq ptr %0, null
  br i1 %.not, label %.thread, label %.preheader

.preheader:                                       ; preds = %3
  %4 = sext i32 %2 to i64
  %.010.in16 = getelementptr inbounds nuw i8, ptr %0, i64 8
  %.01017 = load ptr, ptr %.010.in16, align 8, !tbaa !19
  %.not14.not18 = icmp eq ptr %.01017, null
  br i1 %.not14.not18, label %.thread, label %.lr.ph

.lr.ph:                                           ; preds = %.preheader, %11
  %.01019 = phi ptr [ %.010, %11 ], [ %.01017, %.preheader ]
  %5 = load ptr, ptr %.01019, align 8, !tbaa !7
  %6 = tail call i64 @strlen(ptr noundef nonnull dereferenceable(1) %5) #14
  %7 = trunc i64 %6 to i32
  %8 = icmp eq i32 %2, %7
  br i1 %8, label %9, label %11

9:                                                ; preds = %.lr.ph
  %bcmp = tail call i32 @bcmp(ptr %1, ptr nonnull %5, i64 %4)
  %10 = icmp eq i32 %bcmp, 0
  br i1 %10, label %.thread, label %11

11:                                               ; preds = %.lr.ph, %9
  %.010.in = getelementptr inbounds nuw i8, ptr %.01019, i64 8
  %.010 = load ptr, ptr %.010.in, align 8, !tbaa !19
  %.not14.not = icmp eq ptr %.010, null
  br i1 %.not14.not, label %.thread, label %.lr.ph, !llvm.loop !20

.thread:                                          ; preds = %9, %11, %.preheader, %3
  %.1 = phi i8 [ 0, %3 ], [ 0, %.preheader ], [ 1, %9 ], [ 0, %11 ]
  ret i8 %.1
}